target datalayout = "e-m:e-p270:32:32-p271:32:32-p272:64:64-i64:64-i128:128-f80:128-n8:16:32:64-S128"
target triple = "x86_64-pc-linux-gnu"

%struct._generic_SUNAdaptController = type { ptr, ptr, ptr }
%struct.SUNAdaptControllerContent_MRIHTol_ = type { ptr, ptr, double, double, double }

; Function Attrs: nounwind uwtable
define i32 @SUNAdaptController_EstimateStepTol_MRIHTol(ptr noundef %0, double noundef %1, double noundef %2, i32 noundef %3, double noundef %4, double noundef %5, ptr noundef %6, ptr noundef %7) #0 {
  %9 = alloca ptr, align 8
  %10 = alloca double, align 8
  %11 = alloca double, align 8
  %12 = alloca i32, align 4
  %13 = alloca double, align 8
  %14 = alloca double, align 8
  %15 = alloca ptr, align 8
  %16 = alloca ptr, align 8
  %17 = alloca ptr, align 8
  %18 = alloca double, align 8
  store ptr %0, ptr %9, align 8, !tbaa !3
  store double %1, ptr %10, align 8, !tbaa !32
  store double %2, ptr %11, align 8, !tbaa !32
  store i32 %3, ptr %12, align 4, !tbaa !33
  store double %4, ptr %13, align 8, !tbaa !32
  store double %5, ptr %14, align 8, !tbaa !32
  store ptr %6, ptr %15, align 8, !tbaa !35
  store ptr %7, ptr %16, align 8, !tbaa !35
  call void @llvm.lifetime.start.p0(i64 8, ptr %17) #5
  %19 = load ptr, ptr %9, align 8, !tbaa !3
  %20 = getelementptr inbounds nuw %struct._generic_SUNAdaptController, ptr %19, i32 0, i32 2
  %21 = load ptr, ptr %20, align 8, !tbaa !37
  store ptr %21, ptr %17, align 8, !tbaa !8
  call void @llvm.lifetime.start.p0(i64 8, ptr %18) #5
  %22 = load ptr, ptr %9, align 8, !tbaa !3
  %23 = getelementptr inbounds nuw %struct._generic_SUNAdaptController, ptr %22, i32 0, i32 0
  %24 = load ptr, ptr %23, align 8, !tbaa !31
  %25 = getelementptr inbounds nuw %struct.SUNAdaptControllerContent_MRIHTol_, ptr %24, i32 0, i32 0
  %26 = load ptr, ptr %25, align 8, !tbaa !24
  %27 = load double, ptr %10, align 8, !tbaa !32
  %28 = load i32, ptr %12, align 4, !tbaa !33
  %29 = load double, ptr %13, align 8, !tbaa !32
  %30 = load ptr, ptr %15, align 8, !tbaa !35
  %31 = call i32 @SUNAdaptController_EstimateStep(ptr noundef %26, double noundef %27, i32 noundef %28, double noundef %29, ptr noundef %30)
  %32 = load ptr, ptr %9, align 8, !tbaa !3
  %33 = getelementptr inbounds nuw %struct._generic_SUNAdaptController, ptr %32, i32 0, i32 0
  %34 = load ptr, ptr %33, align 8, !tbaa !31
  %35 = getelementptr inbounds nuw %struct.SUNAdaptControllerContent_MRIHTol_, ptr %34, i32 0, i32 1
  %36 = load ptr, ptr %35, align 8, !tbaa !27
  %37 = load double, ptr %11, align 8, !tbaa !32
  %38 = load double, ptr %14, align 8, !tbaa !32
  %39 = call i32 @SUNAdaptController_EstimateStep(ptr noundef %36, double noundef %37, i32 noundef 0, double noundef %38, ptr noundef %18)
  %40 = load double, ptr %18, align 8, !tbaa !32
  %41 = load double, ptr %11, align 8, !tbaa !32
  %42 = load ptr, ptr %9, align 8, !tbaa !3
  %43 = getelementptr inbounds nuw %struct._generic_SUNAdaptController, ptr %42, i32 0, i32 0
  %44 = load ptr, ptr %43, align 8, !tbaa !31
  %45 = getelementptr inbounds nuw %struct.SUNAdaptControllerContent_MRIHTol_, ptr %44, i32 0, i32 2
  %46 = load double, ptr %45, align 8, !tbaa !28
  %47 = fdiv double %41, %46
  %48 = fcmp ogt double %40, %47
  br i1 %48, label %49, label %51

49:                                               ; preds = %8
  %50 = load double, ptr %18, align 8, !tbaa !32
  br label %59

51:                                               ; preds = %8
  %52 = load double, ptr %11, align 8, !tbaa !32
  %53 = load ptr, ptr %9, align 8, !tbaa !3
  %54 = getelementptr inbounds nuw %struct._generic_SUNAdaptController, ptr %53, i32 0, i32 0
  %55 = load ptr, ptr %54, align 8, !tbaa !31
  %56 = getelementptr inbounds nuw %struct.SUNAdaptControllerContent_MRIHTol_, ptr %55, i32 0, i32 2
  %57 = load double, ptr %56, align 8, !tbaa !28
  %58 = fdiv double %52, %57
  br label %59

59:                                               ; preds = %51, %49
  %60 = phi double [ %50, %49 ], [ %58, %51 ]
  store double %60, ptr %18, align 8, !tbaa !32
  %61 = load double, ptr %18, align 8, !tbaa !32
  %62 = load double, ptr %11, align 8, !tbaa !32
  %63 = load ptr, ptr %9, align 8, !tbaa !3
  %64 = getelementptr inbounds nuw %struct._generic_SUNAdaptController, ptr %63, i32 0, i32 0
  %65 = load ptr, ptr %64, align 8, !tbaa !31
  %66 = getelementptr inbounds nuw %struct.SUNAdaptControllerContent_MRIHTol_, ptr %65, i32 0, i32 2
  %67 = load double, ptr %66, align 8, !tbaa !28
  %68 = fmul double %62, %67
  %69 = fcmp olt double %61, %68
  br i1 %69, label %70, label %72

70:                                               ; preds = %59
  %71 = load double, ptr %18, align 8, !tbaa !32
  br label %80

72:                                               ; preds = %59
  %73 = load double, ptr %11, align 8, !tbaa !32
  %74 = load ptr, ptr %9, align 8, !tbaa !3
  %75 = getelementptr inbounds nuw %struct._generic_SUNAdaptController, ptr %74, i32 0, i32 0
  %76 = load ptr, ptr %75, align 8, !tbaa !31
  %77 = getelementptr inbounds nuw %struct.SUNAdaptControllerContent_MRIHTol_, ptr %76, i32 0, i32 2
  %78 = load double, ptr %77, align 8, !tbaa !28
  %79 = fmul double %73, %78
  br label %80

80:                                               ; preds = %72, %70
  %81 = phi double [ %71, %70 ], [ %79, %72 ]
  store double %81, ptr %18, align 8, !tbaa !32
  %82 = load double, ptr %18, align 8, !tbaa !32
  %83 = load ptr, ptr %9, align 8, !tbaa !3
  %84 = getelementptr inbounds nuw %struct._generic_SUNAdaptController, ptr %83, i32 0, i32 0
  %85 = load ptr, ptr %84, align 8, !tbaa !31
  %86 = getelementptr inbounds nuw %struct.SUNAdaptControllerContent_MRIHTol_, ptr %85, i32 0, i32 3
  %87 = load double, ptr %86, align 8, !tbaa !29
  %88 = fcmp ogt double %82, %87
  br i1 %88, label %89, label %91

89:                                               ; preds = %80
  %90 = load double, ptr %18, align 8, !tbaa !32
  br label %97

91:                                               ; preds = %80
  %92 = load ptr, ptr %9, align 8, !tbaa !3
  %93 = getelementptr inbounds nuw %struct._generic_SUNAdaptController, ptr %92, i32 0, i32 0
  %94 = load ptr, ptr %93, align 8, !tbaa !31
  %95 = getelementptr inbounds nuw %struct.SUNAdaptControllerContent_MRIHTol_, ptr %94, i32 0, i32 3
  %96 = load double, ptr %95, align 8, !tbaa !29
  br label %97

97:                                               ; preds = %91, %89
  %98 = phi double [ %90, %89 ], [ %96, %91 ]
  store double %98, ptr %18, align 8, !tbaa !32
  %99 = load double, ptr %18, align 8, !tbaa !32
  %100 = load ptr, ptr %9, align 8, !tbaa !3
  %101 = getelementptr inbounds nuw %struct._generic_SUNAdaptController, ptr %100, i32 0, i32 0
  %102 = load ptr, ptr %101, align 8, !tbaa !31
  %103 = getelementptr inbounds nuw %struct.SUNAdaptControllerContent_MRIHTol_, ptr %102, i32 0, i32 4
  %104 = load double, ptr %103, align 8, !tbaa !30
  %105 = fcmp olt double %99, %104
  br i1 %105, label %106, label %108

106:                                              ; preds = %97
  %107 = load double, ptr %18, align 8, !tbaa !32
  br label %114

108:                                              ; preds = %97
  %109 = load ptr, ptr %9, align 8, !tbaa !3
  %110 = getelementptr inbounds nuw %struct._generic_SUNAdaptController, ptr %109, i32 0, i32 0
  %111 = load ptr, ptr %110, align 8, !tbaa !31
  %112 = getelementptr inbounds nuw %struct.SUNAdaptControllerContent_MRIHTol_, ptr %111, i32 0, i32 4
  %113 = load double, ptr %112, align 8, !tbaa !30
  br label %114

114:                                              ; preds = %108, %106
  %115 = phi double [ %107, %106 ], [ %113, %108 ]
  store double %115, ptr %18, align 8, !tbaa !32
  %116 = load double, ptr %18, align 8, !tbaa !32
  %117 = load ptr, ptr %16, align 8, !tbaa !35
  store double %116, ptr %117, align 8, !tbaa !32
  call void @llvm.lifetime.end.p0(i64 8, ptr %18) #5
  call void @llvm.lifetime.end.p0(i64 8, ptr %17) #5
  ret i32 0
}