; Function Attrs: nounwind uwtable
define noundef i32 @SUNAdaptController_EstimateStepTol_MRIHTol(ptr noundef readonly captures(none) %0, double noundef %1, double noundef %2, i32 noundef %3, double noundef %4, double noundef %5, ptr noundef %6, ptr noundef writeonly captures(none) initializes((0, 8)) %7) #0 {
  %9 = alloca double, align 8
  call void @llvm.lifetime.start.p0(i64 8, ptr nonnull %9) #9
  %10 = load ptr, ptr %0, align 8, !tbaa !27
  %11 = load ptr, ptr %10, align 8, !tbaa !19
  %12 = tail call i32 @SUNAdaptController_EstimateStep(ptr noundef %11, double noundef %1, i32 noundef %3, double noundef %4, ptr noundef %6) #9
  %13 = load ptr, ptr %0, align 8, !tbaa !27
  %14 = getelementptr inbounds nuw i8, ptr %13, i64 8
  %15 = load ptr, ptr %14, align 8, !tbaa !23
  %16 = call i32 @SUNAdaptController_EstimateStep(ptr noundef %15, double noundef %2, i32 noundef 0, double noundef %5, ptr noundef nonnull %9) #9
  %17 = load double, ptr %9, align 8, !tbaa !28
  %18 = load ptr, ptr %0, align 8, !tbaa !27
  %19 = getelementptr inbounds nuw i8, ptr %18, i64 16
  %20 = load double, ptr %19, align 8, !tbaa !24
  %21 = fdiv double %2, %20
  %22 = fcmp ogt double %17, %21
  %. = select i1 %22, double %17, double %21
  %23 = fmul double %2, %20
  %24 = fcmp olt double %., %23
  %25 = select i1 %24, double %., double %23
  %26 = getelementptr inbounds nuw i8, ptr %18, i64 24
  %27 = load double, ptr %26, align 8, !tbaa !25
  %28 = fcmp ogt double %25, %27
  %29 = select i1 %28, double %25, double %27
  %30 = getelementptr inbounds nuw i8, ptr %18, i64 32
  %31 = load double, ptr %30, align 8, !tbaa !26
  %32 = fcmp olt double %29, %31
  %33 = select i1 %32, double %29, double %31
  store double %33, ptr %7, align 8, !tbaa !28
  call void @llvm.lifetime.end.p0(i64 8, ptr nonnull %9) #9
  ret i32 0
}